target datalayout = "e-m:e-p270:32:32-p271:32:32-p272:64:64-i64:64-i128:128-f80:128-n8:16:32:64-S128"
target triple = "x86_64-pc-linux-gnu"

%class.EdgeStore = type { ptr }
%class.HashTableHost = type { %class.JfrBasicHashtable, ptr }
%class.JfrBasicHashtable = type { ptr, i64, i64, i64 }
%class.NativeCallStack = type { [4 x ptr] }

@_ZN10MemTracker15_tracking_levelE = external global i32, align 4

; Function Attrs: mustprogress nounwind uwtable
define linkonce_odr hidden void @_ZN15NativeCallStackC2ENS_10FakeMarkerE(ptr noundef nonnull align 8 dereferenceable(32) %0, i32 noundef %1) unnamed_addr #1 comdat align 2 {
  %3 = alloca ptr, align 8
  %4 = alloca i32, align 4
  store ptr %0, ptr %3, align 8
  store i32 %1, ptr %4, align 4
  ret void
}

; Function Attrs: mustprogress nounwind uwtable
define linkonce_odr hidden noundef i32 @_ZN10MemTracker14tracking_levelEv() #1 comdat align 2 {
  %1 = load i32, ptr @_ZN10MemTracker15_tracking_levelE, align 4
  ret i32 %1
}

; Function Attrs: mustprogress nounwind uwtable
define linkonce_odr hidden void @_ZN17JfrBasicHashtableI10StoredEdgeEC2Emm(ptr noundef nonnull align 8 dereferenceable(32) %0, i64 noundef %1, i64 noundef %2) unnamed_addr #1 comdat align 2 {
  %4 = alloca ptr, align 8
  %5 = alloca i64, align 8
  %6 = alloca i64, align 8
  %7 = alloca %class.NativeCallStack, align 8
  store ptr %0, ptr %4, align 8
  store i64 %1, ptr %5, align 8
  store i64 %2, ptr %6, align 8
  %8 = load ptr, ptr %4, align 8
  %9 = getelementptr inbounds %class.JfrBasicHashtable, ptr %8, i32 0, i32 0
  store ptr null, ptr %9, align 8
  %10 = getelementptr inbounds %class.JfrBasicHashtable, ptr %8, i32 0, i32 1
  %11 = load i64, ptr %5, align 8
  store i64 %11, ptr %10, align 8
  %12 = getelementptr inbounds %class.JfrBasicHashtable, ptr %8, i32 0, i32 2
  %13 = load i64, ptr %6, align 8
  store i64 %13, ptr %12, align 8
  %14 = getelementptr inbounds %class.JfrBasicHashtable, ptr %8, i32 0, i32 3
  store i64 0, ptr %14, align 8
  %15 = load i64, ptr %5, align 8
  %16 = mul i64 %15, 8
  %17 = call noundef i32 @_ZN10MemTracker14tracking_levelEv()
  %18 = icmp eq i32 %17, 3
  br i1 %18, label %19, label %20

19:                                               ; preds = %3
  call void @_ZN15NativeCallStackC1Ei(ptr noundef nonnull align 8 dereferenceable(32) %7, i32 noundef 0)
  br label %21

20:                                               ; preds = %3
  call void @_ZN15NativeCallStackC2ENS_10FakeMarkerE(ptr noundef nonnull align 8 dereferenceable(32) %7, i32 noundef 0)
  br label %21

21:                                               ; preds = %20, %19
  %22 = call noundef ptr @_Z12AllocateHeapm8MEMFLAGSRK15NativeCallStackN17AllocFailStrategy13AllocFailEnumE(i64 noundef %16, i8 noundef zeroext 16, ptr noundef nonnull align 8 dereferenceable(32) %7, i32 noundef 0)
  %23 = getelementptr inbounds %class.JfrBasicHashtable, ptr %8, i32 0, i32 0
  store ptr %22, ptr %23, align 8
  %24 = getelementptr inbounds %class.JfrBasicHashtable, ptr %8, i32 0, i32 0
  %25 = load ptr, ptr %24, align 8
  %26 = load i64, ptr %5, align 8
  %27 = mul i64 %26, 8
  call void @llvm.memset.p0.i64(ptr align 1 %25, i8 0, i64 %27, i1 false)
  ret void
}

; Function Attrs: mustprogress nounwind uwtable
define linkonce_odr hidden void @_ZN13HashTableHostI10StoredEdgem17JfrHashtableEntry9EdgeStoreLm1009EEC2EPS2_m(ptr noundef nonnull align 8 dereferenceable(40) %0, ptr noundef %1, i64 noundef %2) unnamed_addr #1 comdat align 2 {
  %4 = alloca ptr, align 8
  %5 = alloca ptr, align 8
  %6 = alloca i64, align 8
  store ptr %0, ptr %4, align 8
  store ptr %1, ptr %5, align 8
  store i64 %2, ptr %6, align 8
  %7 = load ptr, ptr %4, align 8
  %8 = load i64, ptr %6, align 8
  %9 = icmp eq i64 %8, 0
  br i1 %9, label %10, label %11

10:                                               ; preds = %3
  br label %13

11:                                               ; preds = %3
  %12 = load i64, ptr %6, align 8
  br label %13

13:                                               ; preds = %11, %10
  %14 = phi i64 [ 1009, %10 ], [ %12, %11 ]
  call void @_ZN17JfrBasicHashtableI10StoredEdgeEC2Emm(ptr noundef nonnull align 8 dereferenceable(32) %7, i64 noundef %14, i64 noundef 56)
  %15 = getelementptr inbounds %class.HashTableHost, ptr %7, i32 0, i32 1
  %16 = load ptr, ptr %5, align 8
  store ptr %16, ptr %15, align 8
  ret void
}

; Function Attrs: mustprogress nounwind uwtable
define hidden void @_ZN9EdgeStoreC2Ev(ptr noundef nonnull align 8 dereferenceable(8) %0) unnamed_addr #1 align 2 {
  %2 = alloca i64, align 8
  %3 = alloca i8, align 1
  %4 = alloca i64, align 8
  %5 = alloca ptr, align 8
  store ptr %0, ptr %5, align 8
  %6 = load ptr, ptr %5, align 8
  %7 = getelementptr inbounds %class.EdgeStore, ptr %6, i32 0, i32 0
  store i64 40, ptr %4, align 8
  %8 = load i64, ptr %4, align 8
  store i64 %8, ptr %2, align 8
  store i8 16, ptr %3, align 1
  %9 = load i64, ptr %2, align 8
  %10 = load i8, ptr %3, align 1
  %11 = call noundef ptr @_Z12AllocateHeapm8MEMFLAGSN17AllocFailStrategy13AllocFailEnumE(i64 noundef %9, i8 noundef zeroext %10, i32 noundef 0) #7
  call void @_ZN13HashTableHostI10StoredEdgem17JfrHashtableEntry9EdgeStoreLm1009EEC2EPS2_m(ptr noundef nonnull align 8 dereferenceable(40) %11, ptr noundef %6, i64 noundef 0)
  store ptr %11, ptr %7, align 8
  ret void
}