; Function Attrs: mustprogress nounwind uwtable
define hidden void @_ZN9EdgeStoreC2Ev(ptr noundef nonnull align 8 dereferenceable(8) %0) unnamed_addr #0 align 2 {
  %2 = alloca %class.NativeCallStack, align 8
  %3 = tail call noundef ptr @_Z12AllocateHeapm8MEMFLAGSN17AllocFailStrategy13AllocFailEnumE(i64 noundef 40, i8 noundef zeroext 16, i32 noundef 0) #13
  call void @llvm.lifetime.start.p0(i64 32, ptr nonnull %2)
  store ptr null, ptr %3, align 8
  %4 = getelementptr inbounds i8, ptr %3, i64 8
  store i64 1009, ptr %4, align 8
  %5 = getelementptr inbounds i8, ptr %3, i64 16
  store i64 56, ptr %5, align 8
  %6 = getelementptr inbounds i8, ptr %3, i64 24
  store i64 0, ptr %6, align 8
  %7 = load i32, ptr @_ZN10MemTracker15_tracking_levelE, align 4
  %8 = icmp eq i32 %7, 3
  br i1 %8, label %9, label %_ZN13HashTableHostI10StoredEdgem17JfrHashtableEntry9EdgeStoreLm1009EEC2EPS2_m.exit

9:                                                ; preds = %1
  call void @_ZN15NativeCallStackC1Ei(ptr noundef nonnull align 8 dereferenceable(32) %2, i32 noundef 0) #13
  br label %_ZN13HashTableHostI10StoredEdgem17JfrHashtableEntry9EdgeStoreLm1009EEC2EPS2_m.exit

_ZN13HashTableHostI10StoredEdgem17JfrHashtableEntry9EdgeStoreLm1009EEC2EPS2_m.exit: ; preds = %1, %9
  %10 = call noundef ptr @_Z12AllocateHeapm8MEMFLAGSRK15NativeCallStackN17AllocFailStrategy13AllocFailEnumE(i64 noundef 8072, i8 noundef zeroext 16, ptr noundef nonnull align 8 dereferenceable(32) %2, i32 noundef 0) #13
  store ptr %10, ptr %3, align 8
  call void @llvm.memset.p0.i64(ptr noundef nonnull align 1 dereferenceable(8072) %10, i8 0, i64 8072, i1 false)
  call void @llvm.lifetime.end.p0(i64 32, ptr nonnull %2)
  %11 = getelementptr inbounds i8, ptr %3, i64 32
  store ptr %0, ptr %11, align 8
  store ptr %3, ptr %0, align 8
  ret void
}